target datalayout = "e-m:e-p270:32:32-p271:32:32-p272:64:64-i64:64-i128:128-f80:128-n8:16:32:64-S128"
target triple = "x86_64-pc-linux-gnu"

%"class.ue2::flat_detail::flat_base" = type { %"class.std::tuple" }
%"class.std::tuple" = type { %"struct.std::_Tuple_impl" }
%"struct.std::_Tuple_impl" = type { %"struct.std::_Head_base.3" }
%"struct.std::_Head_base.3" = type { %"class.boost::container::small_vector" }
%"class.boost::container::small_vector" = type { %"class.boost::container::small_vector_base.base", [4 x i8] }
%"class.boost::container::small_vector_base.base" = type <{ %"class.boost::container::vector", %"union.boost::move_detail::aligned_struct_wrapper" }>
%"class.boost::container::vector" = type { %"struct.boost::container::vector_alloc_holder" }
%"struct.boost::container::vector_alloc_holder" = type { ptr, i64, i64 }
%"union.boost::move_detail::aligned_struct_wrapper" = type { %"struct.boost::move_detail::aligned_struct" }
%"struct.boost::move_detail::aligned_struct" = type { [4 x i8] }
%"class.boost::container::vec_iterator" = type { ptr }
%"struct.boost::intrusive::algo_pred_equal" = type { i8 }

; Function Attrs: mustprogress nounwind uwtable
define linkonce_odr hidden noundef nonnull align 8 dereferenceable(28) ptr @_ZNSt10_Head_baseILm0EN5boost9container12small_vectorIjLm1ESaIjEvEELb0EE7_M_headERKS5_(ptr noundef nonnull align 8 dereferenceable(32) %0) #1 comdat align 2 {
  %2 = alloca ptr, align 8
  store ptr %0, ptr %2, align 8
  %3 = load ptr, ptr %2, align 8
  %4 = getelementptr inbounds nuw %"struct.std::_Head_base.3", ptr %3, i32 0, i32 0
  ret ptr %4
}

; Function Attrs: inlinehint mustprogress nounwind uwtable
define linkonce_odr hidden noundef nonnull align 8 dereferenceable(8) ptr @_ZN5boost9container12vec_iteratorIPjLb1EEppEv(ptr noundef nonnull align 8 dereferenceable(8) %0) #7 comdat align 2 {
  %2 = alloca ptr, align 8
  store ptr %0, ptr %2, align 8
  %3 = load ptr, ptr %2, align 8
  %4 = getelementptr inbounds nuw %"class.boost::container::vec_iterator", ptr %3, i32 0, i32 0
  %5 = load ptr, ptr %4, align 8
  %6 = getelementptr inbounds nuw i32, ptr %5, i32 1
  store ptr %6, ptr %4, align 8
  ret ptr %3
}

; Function Attrs: mustprogress nounwind uwtable
define linkonce_odr hidden noundef zeroext i1 @_ZNK5boost9intrusive15algo_pred_equalclIjEEbRKT_S5_(ptr noundef nonnull align 1 dereferenceable(1) %0, ptr noundef nonnull align 4 dereferenceable(4) %1, ptr noundef nonnull align 4 dereferenceable(4) %2) #1 comdat align 2 {
  %4 = alloca ptr, align 8
  %5 = alloca ptr, align 8
  %6 = alloca ptr, align 8
  store ptr %0, ptr %4, align 8
  store ptr %1, ptr %5, align 8
  store ptr %2, ptr %6, align 8
  %7 = load ptr, ptr %5, align 8
  %8 = load i32, ptr %7, align 4
  %9 = load ptr, ptr %6, align 8
  %10 = load i32, ptr %9, align 4
  %11 = icmp eq i32 %8, %10
  ret i1 %11
}

; Function Attrs: inlinehint mustprogress nounwind uwtable
define linkonce_odr hidden noundef nonnull align 4 dereferenceable(4) ptr @_ZNK5boost9container12vec_iteratorIPjLb1EEdeEv(ptr noundef nonnull align 8 dereferenceable(8) %0) #7 comdat align 2 {
  %2 = alloca ptr, align 8
  store ptr %0, ptr %2, align 8
  %3 = load ptr, ptr %2, align 8
  %4 = getelementptr inbounds nuw %"class.boost::container::vec_iterator", ptr %3, i32 0, i32 0
  %5 = load ptr, ptr %4, align 8
  ret ptr %5
}

; Function Attrs: inlinehint mustprogress nounwind uwtable
define linkonce_odr hidden noundef zeroext i1 @_ZN5boost9containerneERKNS0_12vec_iteratorIPjLb1EEES5_(ptr noundef nonnull align 8 dereferenceable(8) %0, ptr noundef nonnull align 8 dereferenceable(8) %1) #7 comdat {
  %3 = alloca ptr, align 8
  %4 = alloca ptr, align 8
  store ptr %0, ptr %3, align 8
  store ptr %1, ptr %4, align 8
  %5 = load ptr, ptr %3, align 8
  %6 = getelementptr inbounds nuw %"class.boost::container::vec_iterator", ptr %5, i32 0, i32 0
  %7 = load ptr, ptr %6, align 8
  %8 = load ptr, ptr %4, align 8
  %9 = getelementptr inbounds nuw %"class.boost::container::vec_iterator", ptr %8, i32 0, i32 0
  %10 = load ptr, ptr %9, align 8
  %11 = icmp ne ptr %7, %10
  ret i1 %11
}

; Function Attrs: inlinehint mustprogress nounwind uwtable
define linkonce_odr hidden noundef nonnull align 8 dereferenceable(8) ptr @_ZNK5boost9container12vec_iteratorIPjLb1EE7get_ptrEv(ptr noundef nonnull align 8 dereferenceable(8) %0) #7 comdat align 2 {
  %2 = alloca ptr, align 8
  store ptr %0, ptr %2, align 8
  %3 = load ptr, ptr %2, align 8
  %4 = getelementptr inbounds nuw %"class.boost::container::vec_iterator", ptr %3, i32 0, i32 0
  ret ptr %4
}

; Function Attrs: mustprogress nounwind uwtable
define linkonce_odr hidden noundef nonnull align 8 dereferenceable(28) ptr @_ZNSt11_Tuple_implILm0EJN5boost9container12small_vectorIjLm1ESaIjEvEESt4lessIjEEE7_M_headERKS7_(ptr noundef nonnull align 8 dereferenceable(32) %0) #1 comdat align 2 {
  %2 = alloca ptr, align 8
  store ptr %0, ptr %2, align 8
  %3 = load ptr, ptr %2, align 8
  %4 = call noundef nonnull align 8 dereferenceable(28) ptr @_ZNSt10_Head_baseILm0EN5boost9container12small_vectorIjLm1ESaIjEvEELb0EE7_M_headERKS5_(ptr noundef nonnull align 8 dereferenceable(32) %3) #19
  ret ptr %4
}

; Function Attrs: mustprogress uwtable
define linkonce_odr hidden noundef zeroext i1 @_ZN5boost9intrusive10algo_equalINS_9container12vec_iteratorIPjLb1EEES5_NS0_15algo_pred_equalEEEbT_S7_T0_T1_(ptr noundef %0, ptr noundef %1, ptr noundef %2) #3 comdat {
  %4 = alloca i1, align 1
  %5 = alloca %"struct.boost::intrusive::algo_pred_equal", align 1
  %6 = alloca ptr, align 8
  %7 = alloca ptr, align 8
  %8 = alloca ptr, align 8
  store ptr %0, ptr %6, align 8
  store ptr %1, ptr %7, align 8
  store ptr %2, ptr %8, align 8
  br label %9

9:                                                ; preds = %17, %3
  %10 = call noundef zeroext i1 @_ZN5boost9containerneERKNS0_12vec_iteratorIPjLb1EEES5_(ptr noundef nonnull align 8 dereferenceable(8) %0, ptr noundef nonnull align 8 dereferenceable(8) %1) #19
  br i1 %10, label %11, label %20

11:                                               ; preds = %9
  %12 = call noundef nonnull align 4 dereferenceable(4) ptr @_ZNK5boost9container12vec_iteratorIPjLb1EEdeEv(ptr noundef nonnull align 8 dereferenceable(8) %0) #19
  %13 = call noundef nonnull align 4 dereferenceable(4) ptr @_ZNK5boost9container12vec_iteratorIPjLb1EEdeEv(ptr noundef nonnull align 8 dereferenceable(8) %2) #19
  %14 = call noundef zeroext i1 @_ZNK5boost9intrusive15algo_pred_equalclIjEEbRKT_S5_(ptr noundef nonnull align 1 dereferenceable(1) %5, ptr noundef nonnull align 4 dereferenceable(4) %12, ptr noundef nonnull align 4 dereferenceable(4) %13)
  br i1 %14, label %16, label %15

15:                                               ; preds = %11
  store i1 false, ptr %4, align 1
  br label %21

16:                                               ; preds = %11
  br label %17

17:                                               ; preds = %16
  %18 = call noundef nonnull align 8 dereferenceable(8) ptr @_ZN5boost9container12vec_iteratorIPjLb1EEppEv(ptr noundef nonnull align 8 dereferenceable(8) %0) #19
  %19 = call noundef nonnull align 8 dereferenceable(8) ptr @_ZN5boost9container12vec_iteratorIPjLb1EEppEv(ptr noundef nonnull align 8 dereferenceable(8) %2) #19
  br label %9, !llvm.loop !46

20:                                               ; preds = %9
  store i1 true, ptr %4, align 1
  br label %21

21:                                               ; preds = %20, %15
  %22 = load i1, ptr %4, align 1
  ret i1 %22
}

; Function Attrs: inlinehint mustprogress nounwind uwtable
define linkonce_odr hidden void @_ZN5boost9container12vec_iteratorIPjLb1EEC2ERKS3_(ptr noundef nonnull align 8 dereferenceable(8) %0, ptr noundef nonnull align 8 dereferenceable(8) %1) unnamed_addr #7 comdat align 2 {
  %3 = alloca ptr, align 8
  %4 = alloca ptr, align 8
  store ptr %0, ptr %3, align 8
  store ptr %1, ptr %4, align 8
  %5 = load ptr, ptr %3, align 8
  %6 = getelementptr inbounds nuw %"class.boost::container::vec_iterator", ptr %5, i32 0, i32 0
  %7 = load ptr, ptr %4, align 8
  %8 = call noundef nonnull align 8 dereferenceable(8) ptr @_ZNK5boost9container12vec_iteratorIPjLb1EE7get_ptrEv(ptr noundef nonnull align 8 dereferenceable(8) %7) #19
  %9 = load ptr, ptr %8, align 8
  store ptr %9, ptr %6, align 8
  ret void
}

; Function Attrs: inlinehint mustprogress nounwind uwtable
define linkonce_odr hidden void @_ZNK5boost9container6vectorIjNS0_22small_vector_allocatorIjSaIvEvEEvE4cendEv(ptr dead_on_unwind noalias writable sret(%"class.boost::container::vec_iterator") align 8 %0, ptr noundef nonnull align 8 dereferenceable(24) %1) #7 comdat align 2 {
  %3 = alloca ptr, align 8
  %4 = alloca ptr, align 8
  %5 = alloca ptr, align 8
  %6 = alloca i64, align 8
  store ptr %0, ptr %3, align 8
  store ptr %1, ptr %4, align 8
  %7 = load ptr, ptr %4, align 8
  call void @llvm.lifetime.start.p0(i64 8, ptr %5) #19
  %8 = getelementptr inbounds nuw %"class.boost::container::vector", ptr %7, i32 0, i32 0
  %9 = call noundef nonnull align 8 dereferenceable(8) ptr @_ZNK5boost9container19vector_alloc_holderINS0_22small_vector_allocatorIjSaIvEvEEmNS_11move_detail17integral_constantIjLj1EEEE5startEv(ptr noundef nonnull align 8 dereferenceable(24) %8) #19
  %10 = load ptr, ptr %9, align 8
  store ptr %10, ptr %5, align 8
  call void @llvm.lifetime.start.p0(i64 8, ptr %6) #19
  %11 = getelementptr inbounds nuw %"class.boost::container::vector", ptr %7, i32 0, i32 0
  %12 = getelementptr inbounds nuw %"struct.boost::container::vector_alloc_holder", ptr %11, i32 0, i32 1
  %13 = load i64, ptr %12, align 8
  store i64 %13, ptr %6, align 8
  %14 = load i64, ptr %6, align 8
  %15 = call i64 @llvm.expect.i64(i64 %14, i64 1)
  %16 = icmp ne i64 %15, 0
  br i1 %16, label %17, label %21

17:                                               ; preds = %2
  %18 = load ptr, ptr %5, align 8
  %19 = load i64, ptr %6, align 8
  %20 = getelementptr inbounds nuw i32, ptr %18, i64 %19
  br label %23

21:                                               ; preds = %2
  %22 = load ptr, ptr %5, align 8
  br label %23

23:                                               ; preds = %21, %17
  %24 = phi ptr [ %20, %17 ], [ %22, %21 ]
  call void @_ZN5boost9container12vec_iteratorIPjLb1EEC2ES2_(ptr noundef nonnull align 8 dereferenceable(8) %0, ptr noundef %24) #19
  call void @llvm.lifetime.end.p0(i64 8, ptr %6) #19
  call void @llvm.lifetime.end.p0(i64 8, ptr %5) #19
  ret void
}

; Function Attrs: inlinehint mustprogress nounwind uwtable
define linkonce_odr hidden void @_ZN5boost9container12vec_iteratorIPjLb1EEC2ES2_(ptr noundef nonnull align 8 dereferenceable(8) %0, ptr noundef %1) unnamed_addr #7 comdat align 2 {
  %3 = alloca ptr, align 8
  %4 = alloca ptr, align 8
  store ptr %0, ptr %3, align 8
  store ptr %1, ptr %4, align 8
  %5 = load ptr, ptr %3, align 8
  %6 = getelementptr inbounds nuw %"class.boost::container::vec_iterator", ptr %5, i32 0, i32 0
  %7 = load ptr, ptr %4, align 8
  store ptr %7, ptr %6, align 8
  ret void
}

; Function Attrs: inlinehint mustprogress nounwind uwtable
define linkonce_odr hidden noundef nonnull align 8 dereferenceable(8) ptr @_ZNK5boost9container19vector_alloc_holderINS0_22small_vector_allocatorIjSaIvEvEEmNS_11move_detail17integral_constantIjLj1EEEE5startEv(ptr noundef nonnull align 8 dereferenceable(24) %0) #7 comdat align 2 {
  %2 = alloca ptr, align 8
  store ptr %0, ptr %2, align 8
  %3 = load ptr, ptr %2, align 8
  %4 = getelementptr inbounds nuw %"struct.boost::container::vector_alloc_holder", ptr %3, i32 0, i32 0
  ret ptr %4
}

; Function Attrs: mustprogress nounwind uwtable
define linkonce_odr hidden noundef nonnull align 8 dereferenceable(28) ptr @_ZSt12__get_helperILm0EN5boost9container12small_vectorIjLm1ESaIjEvEEJSt4lessIjEEERKT0_RKSt11_Tuple_implIXT_EJS7_DpT1_EE(ptr noundef nonnull align 8 dereferenceable(32) %0) #1 comdat {
  %2 = alloca ptr, align 8
  store ptr %0, ptr %2, align 8
  %3 = load ptr, ptr %2, align 8
  %4 = call noundef nonnull align 8 dereferenceable(28) ptr @_ZNSt11_Tuple_implILm0EJN5boost9container12small_vectorIjLm1ESaIjEvEESt4lessIjEEE7_M_headERKS7_(ptr noundef nonnull align 8 dereferenceable(32) %3) #19
  ret ptr %4
}

; Function Attrs: mustprogress uwtable
define linkonce_odr hidden noundef zeroext i1 @_ZN5boost9intrusive10algo_equalINS_9container12vec_iteratorIPjLb1EEES5_EEbT_S6_T0_(ptr noundef %0, ptr noundef %1, ptr noundef %2) #3 comdat {
  %4 = alloca ptr, align 8
  %5 = alloca ptr, align 8
  %6 = alloca ptr, align 8
  %7 = alloca %"class.boost::container::vec_iterator", align 8
  %8 = alloca %"class.boost::container::vec_iterator", align 8
  %9 = alloca %"class.boost::container::vec_iterator", align 8
  store ptr %0, ptr %4, align 8
  store ptr %1, ptr %5, align 8
  store ptr %2, ptr %6, align 8
  call void @_ZN5boost9container12vec_iteratorIPjLb1EEC2ERKS3_(ptr noundef nonnull align 8 dereferenceable(8) %7, ptr noundef nonnull align 8 dereferenceable(8) %0) #19
  call void @_ZN5boost9container12vec_iteratorIPjLb1EEC2ERKS3_(ptr noundef nonnull align 8 dereferenceable(8) %8, ptr noundef nonnull align 8 dereferenceable(8) %1) #19
  call void @_ZN5boost9container12vec_iteratorIPjLb1EEC2ERKS3_(ptr noundef nonnull align 8 dereferenceable(8) %9, ptr noundef nonnull align 8 dereferenceable(8) %2) #19
  %10 = call noundef zeroext i1 @_ZN5boost9intrusive10algo_equalINS_9container12vec_iteratorIPjLb1EEES5_NS0_15algo_pred_equalEEEbT_S7_T0_T1_(ptr noundef %7, ptr noundef %8, ptr noundef %9)
  ret i1 %10
}

; Function Attrs: inlinehint mustprogress nounwind uwtable
define linkonce_odr hidden void @_ZNK5boost9container6vectorIjNS0_22small_vector_allocatorIjSaIvEvEEvE3endEv(ptr dead_on_unwind noalias writable sret(%"class.boost::container::vec_iterator") align 8 %0, ptr noundef nonnull align 8 dereferenceable(24) %1) #7 comdat align 2 {
  %3 = alloca ptr, align 8
  %4 = alloca ptr, align 8
  store ptr %0, ptr %3, align 8
  store ptr %1, ptr %4, align 8
  %5 = load ptr, ptr %4, align 8
  call void @_ZNK5boost9container6vectorIjNS0_22small_vector_allocatorIjSaIvEvEEvE4cendEv(ptr dead_on_unwind writable sret(%"class.boost::container::vec_iterator") align 8 %0, ptr noundef nonnull align 8 dereferenceable(24) %5) #19
  ret void
}

; Function Attrs: inlinehint mustprogress nounwind uwtable
define linkonce_odr hidden void @_ZNK5boost9container6vectorIjNS0_22small_vector_allocatorIjSaIvEvEEvE5beginEv(ptr dead_on_unwind noalias writable sret(%"class.boost::container::vec_iterator") align 8 %0, ptr noundef nonnull align 8 dereferenceable(24) %1) #7 comdat align 2 {
  %3 = alloca ptr, align 8
  %4 = alloca ptr, align 8
  store ptr %0, ptr %3, align 8
  store ptr %1, ptr %4, align 8
  %5 = load ptr, ptr %4, align 8
  %6 = getelementptr inbounds nuw %"class.boost::container::vector", ptr %5, i32 0, i32 0
  %7 = call noundef nonnull align 8 dereferenceable(8) ptr @_ZNK5boost9container19vector_alloc_holderINS0_22small_vector_allocatorIjSaIvEvEEmNS_11move_detail17integral_constantIjLj1EEEE5startEv(ptr noundef nonnull align 8 dereferenceable(24) %6) #19
  %8 = load ptr, ptr %7, align 8
  call void @_ZN5boost9container12vec_iteratorIPjLb1EEC2ES2_(ptr noundef nonnull align 8 dereferenceable(8) %0, ptr noundef %8) #19
  ret void
}

; Function Attrs: inlinehint mustprogress nounwind uwtable
define linkonce_odr hidden noundef i64 @_ZNK5boost9container6vectorIjNS0_22small_vector_allocatorIjSaIvEvEEvE4sizeEv(ptr noundef nonnull align 8 dereferenceable(24) %0) #7 comdat align 2 {
  %2 = alloca ptr, align 8
  store ptr %0, ptr %2, align 8
  %3 = load ptr, ptr %2, align 8
  %4 = getelementptr inbounds nuw %"class.boost::container::vector", ptr %3, i32 0, i32 0
  %5 = getelementptr inbounds nuw %"struct.boost::container::vector_alloc_holder", ptr %4, i32 0, i32 1
  %6 = load i64, ptr %5, align 8
  ret i64 %6
}

; Function Attrs: mustprogress nounwind uwtable
define linkonce_odr hidden noundef nonnull align 8 dereferenceable(28) ptr @_ZSt3getILm0EJN5boost9container12small_vectorIjLm1ESaIjEvEESt4lessIjEEERKNSt13tuple_elementIXT_ESt5tupleIJDpT0_EEE4typeERKSB_(ptr noundef nonnull align 8 dereferenceable(32) %0) #1 comdat {
  %2 = alloca ptr, align 8
  store ptr %0, ptr %2, align 8
  %3 = load ptr, ptr %2, align 8
  %4 = call noundef nonnull align 8 dereferenceable(28) ptr @_ZSt12__get_helperILm0EN5boost9container12small_vectorIjLm1ESaIjEvEEJSt4lessIjEEERKT0_RKSt11_Tuple_implIXT_EJS7_DpT1_EE(ptr noundef nonnull align 8 dereferenceable(32) %3) #19
  ret ptr %4
}

; Function Attrs: inlinehint mustprogress uwtable
define linkonce_odr hidden noundef zeroext i1 @_ZN5boost9containereqERKNS0_6vectorIjNS0_22small_vector_allocatorIjSaIvEvEEvEES7_(ptr noundef nonnull align 8 dereferenceable(24) %0, ptr noundef nonnull align 8 dereferenceable(24) %1) #4 comdat {
  %3 = alloca ptr, align 8
  %4 = alloca ptr, align 8
  %5 = alloca %"class.boost::container::vec_iterator", align 8
  %6 = alloca %"class.boost::container::vec_iterator", align 8
  %7 = alloca %"class.boost::container::vec_iterator", align 8
  store ptr %0, ptr %3, align 8
  store ptr %1, ptr %4, align 8
  %8 = load ptr, ptr %3, align 8
  %9 = call noundef i64 @_ZNK5boost9container6vectorIjNS0_22small_vector_allocatorIjSaIvEvEEvE4sizeEv(ptr noundef nonnull align 8 dereferenceable(24) %8) #19
  %10 = load ptr, ptr %4, align 8
  %11 = call noundef i64 @_ZNK5boost9container6vectorIjNS0_22small_vector_allocatorIjSaIvEvEEvE4sizeEv(ptr noundef nonnull align 8 dereferenceable(24) %10) #19
  %12 = icmp eq i64 %9, %11
  br i1 %12, label %13, label %18

13:                                               ; preds = %2
  %14 = load ptr, ptr %3, align 8
  call void @_ZNK5boost9container6vectorIjNS0_22small_vector_allocatorIjSaIvEvEEvE5beginEv(ptr dead_on_unwind writable sret(%"class.boost::container::vec_iterator") align 8 %5, ptr noundef nonnull align 8 dereferenceable(24) %14) #19
  %15 = load ptr, ptr %3, align 8
  call void @_ZNK5boost9container6vectorIjNS0_22small_vector_allocatorIjSaIvEvEEvE3endEv(ptr dead_on_unwind writable sret(%"class.boost::container::vec_iterator") align 8 %6, ptr noundef nonnull align 8 dereferenceable(24) %15) #19
  %16 = load ptr, ptr %4, align 8
  call void @_ZNK5boost9container6vectorIjNS0_22small_vector_allocatorIjSaIvEvEEvE5beginEv(ptr dead_on_unwind writable sret(%"class.boost::container::vec_iterator") align 8 %7, ptr noundef nonnull align 8 dereferenceable(24) %16) #19
  %17 = call noundef zeroext i1 @_ZN5boost9intrusive10algo_equalINS_9container12vec_iteratorIPjLb1EEES5_EEbT_S6_T0_(ptr noundef %5, ptr noundef %6, ptr noundef %7)
  br label %18

18:                                               ; preds = %13, %2
  %19 = phi i1 [ false, %2 ], [ %17, %13 ]
  ret i1 %19
}

; Function Attrs: mustprogress nounwind uwtable
define linkonce_odr hidden noundef nonnull align 8 dereferenceable(28) ptr @_ZNK3ue211flat_detail9flat_baseIjSt4lessIjESaIjEE4dataEv(ptr noundef nonnull align 8 dereferenceable(32) %0) #1 comdat align 2 {
  %2 = alloca ptr, align 8
  store ptr %0, ptr %2, align 8
  %3 = load ptr, ptr %2, align 8
  %4 = getelementptr inbounds nuw %"class.ue2::flat_detail::flat_base", ptr %3, i32 0, i32 0
  %5 = call noundef nonnull align 8 dereferenceable(28) ptr @_ZSt3getILm0EJN5boost9container12small_vectorIjLm1ESaIjEvEESt4lessIjEEERKNSt13tuple_elementIXT_ESt5tupleIJDpT0_EEE4typeERKSB_(ptr noundef nonnull align 8 dereferenceable(32) %4) #19
  ret ptr %5
}

; Function Attrs: mustprogress uwtable
define linkonce_odr hidden noundef zeroext i1 @_ZNK3ue28flat_setIjSt4lessIjESaIjEEeqERKS4_(ptr noundef nonnull align 8 dereferenceable(32) %0, ptr noundef nonnull align 8 dereferenceable(32) %1) #3 comdat align 2 {
  %3 = alloca ptr, align 8
  %4 = alloca ptr, align 8
  store ptr %0, ptr %3, align 8
  store ptr %1, ptr %4, align 8
  %5 = load ptr, ptr %3, align 8
  %6 = call noundef nonnull align 8 dereferenceable(28) ptr @_ZNK3ue211flat_detail9flat_baseIjSt4lessIjESaIjEE4dataEv(ptr noundef nonnull align 8 dereferenceable(32) %5)
  %7 = load ptr, ptr %4, align 8
  %8 = call noundef nonnull align 8 dereferenceable(28) ptr @_ZNK3ue211flat_detail9flat_baseIjSt4lessIjESaIjEE4dataEv(ptr noundef nonnull align 8 dereferenceable(32) %7)
  %9 = call noundef zeroext i1 @_ZN5boost9containereqERKNS0_6vectorIjNS0_22small_vector_allocatorIjSaIvEvEEvEES7_(ptr noundef nonnull align 8 dereferenceable(24) %6, ptr noundef nonnull align 8 dereferenceable(24) %8)
  ret i1 %9
}

; Function Attrs: mustprogress uwtable
define internal noundef zeroext i1 @_ZNK3ue212_GLOBAL__N_117full_check_reportclERKNS_8flat_setIjSt4lessIjESaIjEEES8_(ptr noundef nonnull align 8 dereferenceable(8) %0, ptr noundef nonnull align 8 dereferenceable(32) %1, ptr noundef nonnull align 8 dereferenceable(32) %2) unnamed_addr #3 align 2 {
  %4 = alloca ptr, align 8
  %5 = alloca ptr, align 8
  %6 = alloca ptr, align 8
  store ptr %0, ptr %4, align 8
  store ptr %1, ptr %5, align 8
  store ptr %2, ptr %6, align 8
  %7 = load ptr, ptr %5, align 8
  %8 = load ptr, ptr %6, align 8
  %9 = call noundef zeroext i1 @_ZNK3ue28flat_setIjSt4lessIjESaIjEEeqERKS4_(ptr noundef nonnull align 8 dereferenceable(32) %7, ptr noundef nonnull align 8 dereferenceable(32) %8)
  ret i1 %9
}