; Function Attrs: mustprogress nofree norecurse nosync nounwind willreturn memory(read, inaccessiblemem: none) uwtable
define internal noundef zeroext i1 @_ZNK3ue212_GLOBAL__N_117full_check_reportclERKNS_8flat_setIjSt4lessIjESaIjEEES8_(ptr nonnull readnone align 8 captures(none) %0, ptr noundef nonnull readonly align 8 captures(none) dereferenceable(32) %1, ptr noundef nonnull readonly align 8 captures(none) dereferenceable(32) %2) unnamed_addr #0 align 2 {
  %4 = getelementptr inbounds nuw i8, ptr %1, i64 8
  %5 = load i64, ptr %4, align 8
  %6 = getelementptr inbounds nuw i8, ptr %2, i64 8
  %7 = load i64, ptr %6, align 8
  %8 = icmp eq i64 %5, %7
  br i1 %8, label %9, label %_ZNK3ue28flat_setIjSt4lessIjESaIjEEeqERKS4_.exit

9:                                                ; preds = %3
  %10 = load ptr, ptr %1, align 8, !noalias !380
  %11 = getelementptr inbounds nuw i32, ptr %10, i64 %5
  %.not1.i.i.i.i = icmp eq i64 %5, 0
  br i1 %.not1.i.i.i.i, label %_ZNK3ue28flat_setIjSt4lessIjESaIjEEeqERKS4_.exit, label %.lr.ph.i.i.preheader.i.i

.lr.ph.i.i.preheader.i.i:                         ; preds = %9
  %12 = load ptr, ptr %2, align 8, !noalias !383
  br label %.lr.ph.i.i.i.i

.lr.ph.i.i.i.i:                                   ; preds = %.lr.ph.i.i.i.i, %.lr.ph.i.i.preheader.i.i
  %.sroa.0.0.i.i.i = phi ptr [ %12, %.lr.ph.i.i.preheader.i.i ], [ %18, %.lr.ph.i.i.i.i ]
  %13 = phi ptr [ %10, %.lr.ph.i.i.preheader.i.i ], [ %17, %.lr.ph.i.i.i.i ]
  %14 = load i32, ptr %13, align 4
  %15 = load i32, ptr %.sroa.0.0.i.i.i, align 4
  %16 = icmp eq i32 %14, %15
  %17 = getelementptr inbounds nuw i8, ptr %13, i64 4
  %18 = getelementptr inbounds nuw i8, ptr %.sroa.0.0.i.i.i, i64 4
  %.not.i.i.i.i = icmp ne ptr %17, %11
  %or.cond.not = select i1 %16, i1 %.not.i.i.i.i, i1 false
  br i1 %or.cond.not, label %.lr.ph.i.i.i.i, label %_ZNK3ue28flat_setIjSt4lessIjESaIjEEeqERKS4_.exit, !llvm.loop !69

_ZNK3ue28flat_setIjSt4lessIjESaIjEEeqERKS4_.exit: ; preds = %.lr.ph.i.i.i.i, %3, %9
  %19 = phi i1 [ false, %3 ], [ true, %9 ], [ %16, %.lr.ph.i.i.i.i ]
  ret i1 %19
}